target datalayout = "e-m:e-p270:32:32-p271:32:32-p272:64:64-i64:64-i128:128-f80:128-n8:16:32:64-S128"
target triple = "x86_64-pc-linux-gnu"

%struct.Type_ = type { i32, ptr, ptr, ptr, %union.anon, ptr, ptr, %union.anon.1 }
%union.anon = type { ptr }
%union.anon.1 = type { %struct.TypeFunction }
%struct.TypeFunction = type { ptr, ptr, ptr }
%union.SourceSpan = type { i64 }
%struct.Decl_ = type { ptr, ptr, %union.SourceSpan, i64, %union.anon.3, i32, %union.anon.4, i64, ptr, ptr, ptr, %union.anon.5 }
%union.anon.3 = type { ptr }
%union.anon.4 = type { i16 }
%union.anon.5 = type { %struct.FuncDecl }
%struct.FuncDecl = type { i32, [4 x i8], %struct.Signature_, i32, i32, %union.anon.12 }
%struct.Signature_ = type <{ %struct.CalleeAttributes, i16, i8, i32, i32, [4 x i8], ptr }>
%struct.CalleeAttributes = type { i8 }
%union.anon.12 = type { %struct.anon.13 }
%struct.anon.13 = type { i16, %union.anon.14 }
%union.anon.14 = type { ptr }
%struct.TypeArray = type { ptr, i32 }
%struct.VHeader_ = type { i32, i32, [0 x i8] }
%struct.anon.6 = type { ptr, ptr, %union.anon.7 }
%union.anon.7 = type { %struct.BitStructDecl }
%struct.BitStructDecl = type { ptr, ptr, i8 }
%struct.StructDecl = type { i32, ptr, i32, i16 }

; Function Attrs: nounwind uwtable
define internal zeroext i1 @array_structurally_equivalent_to_struct(ptr noundef %0, ptr noundef %1) #0 {
  %3 = alloca ptr, align 8
  %4 = alloca i32, align 4
  %5 = alloca i32, align 4
  %6 = alloca ptr, align 8
  %7 = alloca ptr, align 8
  %8 = alloca i1, align 1
  %9 = alloca ptr, align 8
  %10 = alloca ptr, align 8
  %11 = alloca i32, align 4
  %12 = alloca ptr, align 8
  %13 = alloca ptr, align 8
  %14 = alloca i32, align 4
  %15 = alloca i32, align 4
  %16 = alloca ptr, align 8
  %17 = alloca i32, align 4
  %18 = alloca i32, align 4
  store ptr %0, ptr %9, align 8
  store ptr %1, ptr %10, align 8
  %19 = load ptr, ptr %9, align 8
  %20 = getelementptr inbounds %struct.Type_, ptr %19, i32 0, i32 7
  %21 = getelementptr inbounds %struct.TypeArray, ptr %20, i32 0, i32 1
  %22 = load i32, ptr %21, align 8
  store i32 %22, ptr %11, align 4
  %23 = load i32, ptr %11, align 4
  %24 = icmp ne i32 %23, 0
  br i1 %24, label %29, label %25

25:                                               ; preds = %2
  %26 = load ptr, ptr %10, align 8
  %27 = call i32 @type_size(ptr noundef %26)
  %28 = icmp eq i32 %27, 0
  store i1 %28, ptr %8, align 1
  br label %122

29:                                               ; preds = %2
  %30 = load ptr, ptr %9, align 8
  %31 = getelementptr inbounds %struct.Type_, ptr %30, i32 0, i32 7
  %32 = getelementptr inbounds %struct.TypeArray, ptr %31, i32 0, i32 0
  %33 = load ptr, ptr %32, align 8
  store ptr %33, ptr %12, align 8
  %34 = load i32, ptr %11, align 4
  %35 = icmp eq i32 %34, 1
  br i1 %35, label %36, label %41

36:                                               ; preds = %29
  %37 = load ptr, ptr %12, align 8
  %38 = load ptr, ptr %10, align 8
  %39 = call zeroext i1 @type_is_structurally_equivalent(ptr noundef %37, ptr noundef %38)
  br i1 %39, label %40, label %41

40:                                               ; preds = %36
  store i1 true, ptr %8, align 1
  br label %122

41:                                               ; preds = %36, %29
  %42 = load ptr, ptr %10, align 8
  store ptr %42, ptr %3, align 8
  %43 = load ptr, ptr %3, align 8
  %44 = load i32, ptr %43, align 8
  store i32 %44, ptr %4, align 4
  %45 = load i32, ptr %4, align 4
  %46 = icmp eq i32 %45, 31
  br i1 %46, label %47, label %52

47:                                               ; preds = %41
  %48 = load ptr, ptr %3, align 8
  %49 = getelementptr inbounds %struct.Type_, ptr %48, i32 0, i32 1
  %50 = load ptr, ptr %49, align 8
  %51 = load i32, ptr %50, align 8
  store i32 %51, ptr %4, align 4
  br label %52

52:                                               ; preds = %47, %41
  %53 = load i32, ptr %4, align 4
  %54 = icmp eq i32 %53, 27
  br i1 %54, label %58, label %55

55:                                               ; preds = %52
  %56 = load i32, ptr %4, align 4
  %57 = icmp eq i32 %56, 26
  br label %58

58:                                               ; preds = %55, %52
  %59 = phi i1 [ true, %52 ], [ %57, %55 ]
  br i1 %59, label %61, label %60

60:                                               ; preds = %58
  store i1 false, ptr %8, align 1
  br label %122

61:                                               ; preds = %58
  %62 = load ptr, ptr %10, align 8
  %63 = getelementptr inbounds %struct.Type_, ptr %62, i32 0, i32 7
  %64 = load ptr, ptr %63, align 8
  %65 = getelementptr inbounds %struct.Decl_, ptr %64, i32 0, i32 11
  %66 = getelementptr inbounds %struct.anon.6, ptr %65, i32 0, i32 2
  %67 = getelementptr inbounds %struct.StructDecl, ptr %66, i32 0, i32 1
  %68 = load ptr, ptr %67, align 8
  store ptr %68, ptr %13, align 8
  store i32 0, ptr %14, align 4
  %69 = load ptr, ptr %9, align 8
  %70 = call i32 @type_abi_alignment(ptr noundef %69)
  store i32 %70, ptr %15, align 4
  %71 = load ptr, ptr %9, align 8
  %72 = getelementptr inbounds %struct.Type_, ptr %71, i32 0, i32 7
  %73 = getelementptr inbounds %struct.TypeArray, ptr %72, i32 0, i32 0
  %74 = load ptr, ptr %73, align 8
  store ptr %74, ptr %16, align 8
  store i32 0, ptr %17, align 4
  %75 = load ptr, ptr %13, align 8
  store ptr %75, ptr %6, align 8
  %76 = load ptr, ptr %6, align 8
  %77 = icmp ne ptr %76, null
  br i1 %77, label %79, label %78

78:                                               ; preds = %61
  store i32 0, ptr %5, align 4
  br label %84

79:                                               ; preds = %61
  %80 = load ptr, ptr %6, align 8
  store ptr %80, ptr %7, align 8
  %81 = load ptr, ptr %7, align 8
  %82 = getelementptr inbounds %struct.VHeader_, ptr %81, i64 -1
  %83 = load i32, ptr %82, align 4
  store i32 %83, ptr %5, align 4
  br label %84

84:                                               ; preds = %79, %78
  %85 = load i32, ptr %5, align 4
  store i32 %85, ptr %18, align 4
  br label %86

86:                                               ; preds = %118, %84
  %87 = load i32, ptr %17, align 4
  %88 = load i32, ptr %18, align 4
  %89 = icmp ult i32 %87, %88
  br i1 %89, label %90, label %121

90:                                               ; preds = %86
  %91 = load ptr, ptr %16, align 8
  %92 = load ptr, ptr %13, align 8
  %93 = load i32, ptr %17, align 4
  %94 = zext i32 %93 to i64
  %95 = getelementptr inbounds ptr, ptr %92, i64 %94
  %96 = load ptr, ptr %95, align 8
  %97 = getelementptr inbounds %struct.Decl_, ptr %96, i32 0, i32 10
  %98 = load ptr, ptr %97, align 8
  %99 = call zeroext i1 @type_is_structurally_equivalent(ptr noundef %91, ptr noundef %98)
  br i1 %99, label %101, label %100

100:                                              ; preds = %90
  store i1 false, ptr %8, align 1
  br label %122

101:                                              ; preds = %90
  %102 = load ptr, ptr %13, align 8
  %103 = load i32, ptr %17, align 4
  %104 = zext i32 %103 to i64
  %105 = getelementptr inbounds ptr, ptr %102, i64 %104
  %106 = load ptr, ptr %105, align 8
  %107 = getelementptr inbounds %struct.Decl_, ptr %106, i32 0, i32 7
  %108 = load i64, ptr %107, align 8
  %109 = and i64 %108, 4294967295
  %110 = trunc i64 %109 to i32
  %111 = load i32, ptr %14, align 4
  %112 = icmp ne i32 %110, %111
  br i1 %112, label %113, label %114

113:                                              ; preds = %101
  store i1 false, ptr %8, align 1
  br label %122

114:                                              ; preds = %101
  %115 = load i32, ptr %15, align 4
  %116 = load i32, ptr %14, align 4
  %117 = add i32 %116, %115
  store i32 %117, ptr %14, align 4
  br label %118

118:                                              ; preds = %114
  %119 = load i32, ptr %17, align 4
  %120 = add i32 %119, 1
  store i32 %120, ptr %17, align 4
  br label %86, !llvm.loop !15

121:                                              ; preds = %86
  store i1 true, ptr %8, align 1
  br label %122

122:                                              ; preds = %121, %113, %100, %60, %40, %25
  %123 = load i1, ptr %8, align 1
  ret i1 %123
}