; Function Attrs: nounwind uwtable
define internal fastcc zeroext i1 @array_structurally_equivalent_to_struct(ptr nocapture noundef readonly %0, ptr nocapture noundef readonly %1) unnamed_addr #0 {
  %3 = getelementptr inbounds i8, ptr %0, i64 56
  %4 = getelementptr inbounds i8, ptr %0, i64 64
  %5 = load i32, ptr %4, align 8
  switch i32 %5, label %12 [
    i32 0, label %6
    i32 1, label %9
  ]

6:                                                ; preds = %2
  %7 = tail call i32 @type_size(ptr noundef %1)
  %8 = icmp eq i32 %7, 0
  br label %.loopexit

9:                                                ; preds = %2
  %10 = load ptr, ptr %3, align 8
  %11 = tail call zeroext i1 @type_is_structurally_equivalent(ptr noundef %10, ptr noundef %1)
  br i1 %11, label %.loopexit, label %12

12:                                               ; preds = %2, %9
  %13 = load i32, ptr %1, align 8
  %14 = icmp eq i32 %13, 31
  br i1 %14, label %15, label %19

15:                                               ; preds = %12
  %16 = getelementptr inbounds i8, ptr %1, i64 8
  %17 = load ptr, ptr %16, align 8
  %18 = load i32, ptr %17, align 8
  br label %19

19:                                               ; preds = %15, %12
  %.0 = phi i32 [ %18, %15 ], [ %13, %12 ]
  %20 = and i32 %.0, -2
  %21 = icmp eq i32 %20, 26
  br i1 %21, label %22, label %.loopexit

22:                                               ; preds = %19
  %23 = getelementptr inbounds i8, ptr %1, i64 56
  %24 = load ptr, ptr %23, align 8
  %25 = getelementptr inbounds i8, ptr %24, i64 104
  %26 = load ptr, ptr %25, align 8
  %27 = tail call i32 @type_abi_alignment(ptr noundef nonnull %0)
  %28 = load ptr, ptr %3, align 8
  %.not39 = icmp eq ptr %26, null
  br i1 %.not39, label %.loopexit, label %29

29:                                               ; preds = %22
  %30 = getelementptr inbounds i8, ptr %26, i64 -8
  %31 = load i32, ptr %30, align 4
  %.not = icmp eq i32 %31, 0
  br i1 %.not, label %.loopexit, label %.lr.ph.preheader

.lr.ph.preheader:                                 ; preds = %29
  %wide.trip.count = zext i32 %31 to i64
  br label %.lr.ph

.lr.ph:                                           ; preds = %.lr.ph.preheader, %42
  %indvars.iv = phi i64 [ 0, %.lr.ph.preheader ], [ %indvars.iv.next, %42 ]
  %.03541 = phi i32 [ 0, %.lr.ph.preheader ], [ %43, %42 ]
  %32 = getelementptr inbounds ptr, ptr %26, i64 %indvars.iv
  %33 = load ptr, ptr %32, align 8
  %34 = getelementptr inbounds i8, ptr %33, i64 72
  %35 = load ptr, ptr %34, align 8
  %36 = tail call zeroext i1 @type_is_structurally_equivalent(ptr noundef %28, ptr noundef %35)
  br i1 %36, label %37, label %.loopexit

37:                                               ; preds = %.lr.ph
  %38 = load ptr, ptr %32, align 8
  %39 = getelementptr inbounds i8, ptr %38, i64 48
  %40 = load i64, ptr %39, align 8
  %41 = trunc i64 %40 to i32
  %.not40 = icmp eq i32 %.03541, %41
  br i1 %.not40, label %42, label %.loopexit

42:                                               ; preds = %37
  %43 = add i32 %.03541, %27
  %indvars.iv.next = add nuw nsw i64 %indvars.iv, 1
  %exitcond.not = icmp eq i64 %indvars.iv.next, %wide.trip.count
  br i1 %exitcond.not, label %.loopexit, label %.lr.ph, !llvm.loop !17

.loopexit:                                        ; preds = %.lr.ph, %37, %42, %22, %29, %19, %9, %6
  %.034 = phi i1 [ %8, %6 ], [ true, %9 ], [ false, %19 ], [ true, %29 ], [ true, %22 ], [ false, %.lr.ph ], [ false, %37 ], [ true, %42 ]
  ret i1 %.034
}